	.file	"J:/ProjectEstimated2014/XMOS/HMI/REF_8080_RGB/HMI/slave/module_display_controller/src/display_controller_client.xc"

	.inline_definition delay_seconds
	.inline_definition delay_milliseconds
	.inline_definition delay_microseconds
	.set usage.anon.0,0
	.set usage.anon.1,0
	.set usage.anon.2,0
	.call image_read_partial_line,image_read_partial_line_p
	.call image_read_line,image_read_line_p
	.call image_write_line,image_write_line_p
	.call usage.anon.2,delay_ticks_longlong
	.call usage.anon.1,delay_ticks_longlong
	.call usage.anon.0,delay_ticks_longlong
	.set usage.anon.0.locnoside, 1
	.set usage.anon.1.locnoside, 1
	.set usage.anon.2.locnoside, 1
	.set usage.anon.0.locnochandec, 1
	.set usage.anon.1.locnochandec, 1
	.set usage.anon.2.locnochandec, 1
	.set register_image.locnochandec, 1
	.set image_write_line_p.locnochandec, 1
	.set image_write_line.locnochandec, 1
	.set image_read_line_p.locnochandec, 1
	.set image_read_line.locnochandec, 1
	.set image_read_partial_line_p.locnochandec, 1
	.set image_read_partial_line.locnochandec, 1
	.set wait_until_idle.locnochandec, 1
	.set wait_until_idle_p.locnochandec, 1
	.set frame_buffer_commit.locnochandec, 1
	.set frame_buffer_init.locnochandec, 1
	.set usage.anon.0.locnoglobalaccess, 1
	.set usage.anon.1.locnoglobalaccess, 1
	.set usage.anon.2.locnoglobalaccess, 1
	.set register_image.locnoglobalaccess, 1
	.set image_write_line_p.locnoglobalaccess, 1
	.set image_write_line.locnoglobalaccess, 1
	.set image_read_line_p.locnoglobalaccess, 1
	.set image_read_line.locnoglobalaccess, 1
	.set image_read_partial_line_p.locnoglobalaccess, 1
	.set image_read_partial_line.locnoglobalaccess, 1
	.set wait_until_idle.locnoglobalaccess, 1
	.set wait_until_idle_p.locnoglobalaccess, 1
	.set frame_buffer_commit.locnoglobalaccess, 1
	.set frame_buffer_init.locnoglobalaccess, 1
	.set usage.anon.0.locnointerfaceaccess, 1
	.set usage.anon.1.locnointerfaceaccess, 1
	.set usage.anon.2.locnointerfaceaccess, 1
	.set register_image.locnointerfaceaccess, 1
	.set image_write_line_p.locnointerfaceaccess, 1
	.set image_write_line.locnointerfaceaccess, 1
	.set image_read_line_p.locnointerfaceaccess, 1
	.set image_read_line.locnointerfaceaccess, 1
	.set image_read_partial_line_p.locnointerfaceaccess, 1
	.set image_read_partial_line.locnointerfaceaccess, 1
	.set wait_until_idle.locnointerfaceaccess, 1
	.set wait_until_idle_p.locnointerfaceaccess, 1
	.set frame_buffer_commit.locnointerfaceaccess, 1
	.set frame_buffer_init.locnointerfaceaccess, 1
	.set usage.anon.0.locnonotificationselect, 1
	.set usage.anon.1.locnonotificationselect, 1
	.set usage.anon.2.locnonotificationselect, 1
	.set register_image.locnonotificationselect, 1
	.set image_write_line_p.locnonotificationselect, 1
	.set image_write_line.locnonotificationselect, 1
	.set image_read_line_p.locnonotificationselect, 1
	.set image_read_line.locnonotificationselect, 1
	.set image_read_partial_line_p.locnonotificationselect, 1
	.set image_read_partial_line.locnonotificationselect, 1
	.set wait_until_idle.locnonotificationselect, 1
	.set wait_until_idle_p.locnonotificationselect, 1
	.set frame_buffer_commit.locnonotificationselect, 1
	.set frame_buffer_init.locnonotificationselect, 1


	.file	1 "J:/ProjectEstimated2014/XMOS/HMI/REF_8080_RGB/HMI/slave/module_display_controller/src/display_controller_client.xc"
	.file	2 "J:\\ProjectEstimated2014\\XMOS\\HMI\\REF_8080_RGB\\HMI\\slave\\app_kentec_display_i8080\\.build_Debug\\timer.h"
	.text
.Ltext_begin:
	.section	.dp.data,"awd",@progbits
	.text
	.cc_top image_read_line.function
	.globl	image_read_line
	.align	4
	.type	image_read_line,@function
image_read_line:
.Ltmp1:
	.cfi_startproc
.Lfunc_begin0:
	.loc	1 46 0
.Lxtalabel0:
	stw lr, sp[0]
.Ltmp2:
	.cfi_offset 15, 0
.Ltmp3:
	.loc	1 37 0 prologue_end
	outct res[r0], 1
	chkct res[r0], 1
	mkmsk r11, 1
	.loc	1 37 0
.Lxta.endpoint_labels0:
	outt res[r0], r11
	.loc	1 37 0
	outct res[r0], 1
	chkct res[r0], 1
	.loc	1 38 0
	outct res[r0], 1
	.loc	1 39 0
	chkct res[r0], 1
.Ltmp4:
	.loc	1 39 0
.Lxta.endpoint_labels1:
	out res[r0], r2
.Ltmp5:
	.loc	1 40 0
.Lxta.endpoint_labels2:
	out res[r0], r1
.Ltmp6:
	.loc	1 48 0
	#APP
	mov r1, r3
	#NO_APP
.Ltmp7:
	.loc	1 41 0
.Lxta.endpoint_labels3:
	out res[r0], r1
	.loc	1 41 0
	outct res[r0], 1
	chkct res[r0], 1
	ldw lr, sp[0]
	retsp 0
.Ltmp8:
.Ltmp9:
	.size	image_read_line, .Ltmp9-image_read_line
.Lfunc_end0:
.Ltmp10:
	.cfi_endproc
.Leh_func_end0:

	.align	4
	.cc_bottom image_read_line.function
	.set	image_read_line.nstackwords,0
	.globl	image_read_line.nstackwords
	.set	image_read_line.maxcores,1
	.globl	image_read_line.maxcores
	.set	image_read_line.maxtimers,0
	.globl	image_read_line.maxtimers
	.set	image_read_line.maxchanends,0
	.globl	image_read_line.maxchanends
	.cc_top image_read_line_p.function
	.globl	image_read_line_p
	.align	4
	.type	image_read_line_p,@function
image_read_line_p:
.Ltmp11:
	.cfi_startproc
.Lfunc_begin1:
	.loc	1 36 0
.Lxtalabel1:
	.loc	1 37 0 prologue_end
	outct res[r0], 1
	chkct res[r0], 1
	mkmsk r11, 1
	.loc	1 37 0
.Lxta.endpoint_labels4:
	outt res[r0], r11
	.loc	1 37 0
	outct res[r0], 1
	chkct res[r0], 1
	.loc	1 38 0
	outct res[r0], 1
	.loc	1 39 0
	chkct res[r0], 1
	.loc	1 39 0
.Lxta.endpoint_labels5:
	out res[r0], r2
	.loc	1 40 0
.Lxta.endpoint_labels6:
	out res[r0], r1
	.loc	1 41 0
.Lxta.endpoint_labels7:
	out res[r0], r3
	.loc	1 41 0
	outct res[r0], 1
	chkct res[r0], 1
	retsp 0
.Ltmp12:
.Ltmp13:
	.size	image_read_line_p, .Ltmp13-image_read_line_p
.Lfunc_end1:
.Ltmp14:
	.cfi_endproc
.Leh_func_end1:

	.align	4
	.cc_bottom image_read_line_p.function
	.set	image_read_line_p.nstackwords,0
	.globl	image_read_line_p.nstackwords
	.set	image_read_line_p.maxcores,1
	.globl	image_read_line_p.maxcores
	.set	image_read_line_p.maxtimers,0
	.globl	image_read_line_p.maxtimers
	.set	image_read_line_p.maxchanends,0
	.globl	image_read_line_p.maxchanends
	.cc_top image_write_line.function
	.globl	image_write_line
	.align	4
	.type	image_write_line,@function
image_write_line:
.Ltmp16:
	.cfi_startproc
.Lfunc_begin2:
	.loc	1 29 0
.Lxtalabel2:
	stw lr, sp[0]
.Ltmp17:
	.cfi_offset 15, 0
.Ltmp18:
	.loc	1 20 0 prologue_end
	outct res[r0], 1
	chkct res[r0], 1
	ldc r11, 0
	.loc	1 20 0
.Lxta.endpoint_labels8:
	outt res[r0], r11
	.loc	1 20 0
	outct res[r0], 1
	chkct res[r0], 1
	.loc	1 21 0
	outct res[r0], 1
	.loc	1 22 0
	chkct res[r0], 1
.Ltmp19:
	.loc	1 22 0
.Lxta.endpoint_labels9:
	out res[r0], r2
.Ltmp20:
	.loc	1 23 0
.Lxta.endpoint_labels10:
	out res[r0], r1
.Ltmp21:
	.loc	1 31 0
	#APP
	mov r1, r3
	#NO_APP
.Ltmp22:
	.loc	1 24 0
.Lxta.endpoint_labels11:
	out res[r0], r1
	.loc	1 24 0
	outct res[r0], 1
	chkct res[r0], 1
	ldw lr, sp[0]
	retsp 0
.Ltmp23:
.Ltmp24:
	.size	image_write_line, .Ltmp24-image_write_line
.Lfunc_end2:
.Ltmp25:
	.cfi_endproc
.Leh_func_end2:

	.align	4
	.cc_bottom image_write_line.function
	.set	image_write_line.nstackwords,0
	.globl	image_write_line.nstackwords
	.set	image_write_line.maxcores,1
	.globl	image_write_line.maxcores
	.set	image_write_line.maxtimers,0
	.globl	image_write_line.maxtimers
	.set	image_write_line.maxchanends,0
	.globl	image_write_line.maxchanends
	.cc_top image_write_line_p.function
	.globl	image_write_line_p
	.align	4
	.type	image_write_line_p,@function
image_write_line_p:
.Ltmp26:
	.cfi_startproc
.Lfunc_begin3:
	.loc	1 19 0
.Lxtalabel3:
	.loc	1 20 0 prologue_end
	outct res[r0], 1
	chkct res[r0], 1
	ldc r11, 0
	.loc	1 20 0
.Lxta.endpoint_labels12:
	outt res[r0], r11
	.loc	1 20 0
	outct res[r0], 1
	chkct res[r0], 1
	.loc	1 21 0
	outct res[r0], 1
	.loc	1 22 0
	chkct res[r0], 1
	.loc	1 22 0
.Lxta.endpoint_labels13:
	out res[r0], r2
	.loc	1 23 0
.Lxta.endpoint_labels14:
	out res[r0], r1
	.loc	1 24 0
.Lxta.endpoint_labels15:
	out res[r0], r3
	.loc	1 24 0
	outct res[r0], 1
	chkct res[r0], 1
	retsp 0
.Ltmp27:
.Ltmp28:
	.size	image_write_line_p, .Ltmp28-image_write_line_p
.Lfunc_end3:
.Ltmp29:
	.cfi_endproc
.Leh_func_end3:

	.align	4
	.cc_bottom image_write_line_p.function
	.set	image_write_line_p.nstackwords,0
	.globl	image_write_line_p.nstackwords
	.set	image_write_line_p.maxcores,1
	.globl	image_write_line_p.maxcores
	.set	image_write_line_p.maxtimers,0
	.globl	image_write_line_p.maxtimers
	.set	image_write_line_p.maxchanends,0
	.globl	image_write_line_p.maxchanends
	.cc_top image_read_partial_line.function
	.globl	image_read_partial_line
	.align	4
	.type	image_read_partial_line,@function
image_read_partial_line:
.Ltmp34:
	.cfi_startproc
.Lfunc_begin4:
	.loc	1 70 0
.Lxtalabel4:
	entsp 3
.Ltmp35:
	.cfi_def_cfa_offset 12
.Ltmp36:
	.cfi_offset 15, 0
	.loc	1 68 0 prologue_end
.Ltmp37:
	stw r4, sp[2]
.Ltmp38:
	.cfi_offset 4, -4
	stw r5, sp[1]
.Ltmp39:
	.cfi_offset 5, -8
	stw r6, sp[0]
.Ltmp40:
	.cfi_offset 6, -12
.Ltmp41:
	ldw r11, sp[5]
.Ltmp42:
	.loc	1 55 0
	bf r11, .LBB4_2
.Ltmp43:
.Lxtalabel5:
	.loc	1 72 0
	#APP
	mov r3, r3
	#NO_APP
.Ltmp44:
	ldw r5, sp[6]
.Ltmp45:
	ldw r4, sp[4]
.Ltmp46:
	.loc	1 57 0
	outct res[r0], 1
	chkct res[r0], 1
	ldc r6, 2
	.loc	1 57 0
.Lxta.endpoint_labels16:
	outt res[r0], r6
	.loc	1 57 0
	outct res[r0], 1
	chkct res[r0], 1
	.loc	1 59 0
	outct res[r0], 1
	.loc	1 60 0
	chkct res[r0], 1
	.loc	1 60 0
.Lxta.endpoint_labels17:
	out res[r0], r2
	.loc	1 61 0
.Lxta.endpoint_labels18:
	out res[r0], r1
	.loc	1 58 0
	ldaw r1, r3[r5]
.Ltmp47:
	.loc	1 62 0
.Lxta.endpoint_labels19:
	out res[r0], r1
	.loc	1 63 0
.Lxta.endpoint_labels20:
	out res[r0], r4
	.loc	1 64 0
.Lxta.endpoint_labels21:
	out res[r0], r11
	.loc	1 64 0
	outct res[r0], 1
	chkct res[r0], 1
.Ltmp48:
.LBB4_2:
	ldw r6, sp[0]
	ldw r5, sp[1]
	ldw r4, sp[2]
	retsp 3
.Ltmp49:
	.size	image_read_partial_line, .Ltmp49-image_read_partial_line
.Lfunc_end4:
.Ltmp50:
	.cfi_endproc
.Leh_func_end4:

	.align	4
	.cc_bottom image_read_partial_line.function
	.set	image_read_partial_line.nstackwords,3
	.globl	image_read_partial_line.nstackwords
	.set	image_read_partial_line.maxcores,1
	.globl	image_read_partial_line.maxcores
	.set	image_read_partial_line.maxtimers,0
	.globl	image_read_partial_line.maxtimers
	.set	image_read_partial_line.maxchanends,0
	.globl	image_read_partial_line.maxchanends
	.cc_top image_read_partial_line_p.function
	.globl	image_read_partial_line_p
	.align	4
	.type	image_read_partial_line_p,@function
image_read_partial_line_p:
.Ltmp55:
	.cfi_startproc
.Lfunc_begin5:
	.loc	1 54 0
.Lxtalabel6:
	entsp 3
.Ltmp56:
	.cfi_def_cfa_offset 12
.Ltmp57:
	.cfi_offset 15, 0
	.loc	1 52 0 prologue_end
.Ltmp58:
	stw r4, sp[2]
.Ltmp59:
	.cfi_offset 4, -4
	stw r5, sp[1]
.Ltmp60:
	.cfi_offset 5, -8
	stw r6, sp[0]
.Ltmp61:
	.cfi_offset 6, -12
	ldw r11, sp[5]
	.loc	1 55 0
.Ltmp62:
	bf r11, .LBB5_2
.Lxtalabel7:
.Ltmp63:
	ldw r5, sp[6]
	ldw r4, sp[4]
	.loc	1 57 0
	outct res[r0], 1
	chkct res[r0], 1
	ldc r6, 2
	.loc	1 57 0
.Lxta.endpoint_labels22:
	outt res[r0], r6
	.loc	1 57 0
	outct res[r0], 1
	chkct res[r0], 1
	.loc	1 59 0
	outct res[r0], 1
	.loc	1 60 0
	chkct res[r0], 1
	.loc	1 60 0
.Lxta.endpoint_labels23:
	out res[r0], r2
	.loc	1 61 0
.Lxta.endpoint_labels24:
	out res[r0], r1
	.loc	1 58 0
	ldaw r1, r3[r5]
.Ltmp64:
	.loc	1 62 0
.Lxta.endpoint_labels25:
	out res[r0], r1
	.loc	1 63 0
.Lxta.endpoint_labels26:
	out res[r0], r4
	.loc	1 64 0
.Lxta.endpoint_labels27:
	out res[r0], r11
	.loc	1 64 0
	outct res[r0], 1
	chkct res[r0], 1
.Ltmp65:
.LBB5_2:
	ldw r6, sp[0]
	ldw r5, sp[1]
	ldw r4, sp[2]
	retsp 3
.Ltmp66:
	.size	image_read_partial_line_p, .Ltmp66-image_read_partial_line_p
.Lfunc_end5:
.Ltmp67:
	.cfi_endproc
.Leh_func_end5:

	.align	4
	.cc_bottom image_read_partial_line_p.function
	.set	image_read_partial_line_p.nstackwords,3
	.globl	image_read_partial_line_p.nstackwords
	.set	image_read_partial_line_p.maxcores,1
	.globl	image_read_partial_line_p.maxcores
	.set	image_read_partial_line_p.maxtimers,0
	.globl	image_read_partial_line_p.maxtimers
	.set	image_read_partial_line_p.maxchanends,0
	.globl	image_read_partial_line_p.maxchanends
	.cc_top register_image.function
	.globl	register_image
	.align	4
	.type	register_image,@function
register_image:
.Ltmp68:
	.cfi_startproc
.Lfunc_begin6:
	.loc	1 7 0
.Lxtalabel8:
	.loc	1 9 0 prologue_end
	outct res[r0], 1
	chkct res[r0], 1
	ldc r3, 6
	.loc	1 9 0
.Lxta.endpoint_labels28:
	outt res[r0], r3
	.loc	1 9 0
	outct res[r0], 1
	chkct res[r0], 1
	.loc	1 10 0
	outct res[r0], 1
	.loc	1 11 0
	chkct res[r0], 1
	.loc	1 11 0
.Lxta.endpoint_labels29:
	out res[r0], r1
	.loc	1 12 0
.Lxta.endpoint_labels30:
	out res[r0], r2
	.loc	1 12 0
	outct res[r0], 1
	chkct res[r0], 1
	.loc	1 14 0
	chkct res[r0], 1
	outct res[r0], 1
	.loc	1 14 0
.Lxta.endpoint_labels31:
	in r1, res[r0]
.Ltmp69:
	.loc	1 14 0
	chkct res[r0], 1
	outct res[r0], 1
	mov r0, r1
.Ltmp70:
	retsp 0
.Ltmp71:
.Ltmp72:
	.size	register_image, .Ltmp72-register_image
.Lfunc_end6:
.Ltmp73:
	.cfi_endproc
.Leh_func_end6:

	.align	4
	.cc_bottom register_image.function
	.set	register_image.nstackwords,0
	.globl	register_image.nstackwords
	.set	register_image.maxcores,1
	.globl	register_image.maxcores
	.set	register_image.maxtimers,0
	.globl	register_image.maxtimers
	.set	register_image.maxchanends,0
	.globl	register_image.maxchanends
	.cc_top wait_until_idle_p.function
	.globl	wait_until_idle_p
	.align	4
	.type	wait_until_idle_p,@function
wait_until_idle_p:
.Ltmp74:
	.cfi_startproc
.Lfunc_begin7:
	.loc	1 81 0
.Lxtalabel9:
	.loc	1 82 0 prologue_end
	outct res[r0], 1
	chkct res[r0], 1
	mkmsk r1, 2
.Ltmp75:
	.loc	1 82 0
.Lxta.endpoint_labels32:
	outt res[r0], r1
	.loc	1 82 0
	outct res[r0], 1
	chkct res[r0], 1
	retsp 0
.Ltmp76:
.Ltmp77:
	.size	wait_until_idle_p, .Ltmp77-wait_until_idle_p
.Lfunc_end7:
.Ltmp78:
	.cfi_endproc
.Leh_func_end7:

	.align	4
	.cc_bottom wait_until_idle_p.function
	.set	wait_until_idle_p.nstackwords,0
	.globl	wait_until_idle_p.nstackwords
	.set	wait_until_idle_p.maxcores,1
	.globl	wait_until_idle_p.maxcores
	.set	wait_until_idle_p.maxtimers,0
	.globl	wait_until_idle_p.maxtimers
	.set	wait_until_idle_p.maxchanends,0
	.globl	wait_until_idle_p.maxchanends
	.cc_top wait_until_idle.function
	.globl	wait_until_idle
	.align	4
	.type	wait_until_idle,@function
wait_until_idle:
.Ltmp79:
	.cfi_startproc
.Lfunc_begin8:
	.loc	1 77 0
.Lxtalabel10:
	.loc	1 78 0 prologue_end
	outct res[r0], 1
	chkct res[r0], 1
	mkmsk r1, 2
.Ltmp80:
	.loc	1 78 0
.Lxta.endpoint_labels33:
	outt res[r0], r1
	.loc	1 78 0
	outct res[r0], 1
	chkct res[r0], 1
	retsp 0
.Ltmp81:
.Ltmp82:
	.size	wait_until_idle, .Ltmp82-wait_until_idle
.Lfunc_end8:
.Ltmp83:
	.cfi_endproc
.Leh_func_end8:

	.align	4
	.cc_bottom wait_until_idle.function
	.set	wait_until_idle.nstackwords,0
	.globl	wait_until_idle.nstackwords
	.set	wait_until_idle.maxcores,1
	.globl	wait_until_idle.maxcores
	.set	wait_until_idle.maxtimers,0
	.globl	wait_until_idle.maxtimers
	.set	wait_until_idle.maxchanends,0
	.globl	wait_until_idle.maxchanends
	.cc_top frame_buffer_commit.function
	.globl	frame_buffer_commit
	.align	4
	.type	frame_buffer_commit,@function
frame_buffer_commit:
.Ltmp84:
	.cfi_startproc
.Lfunc_begin9:
	.loc	1 85 0
.Lxtalabel11:
	.loc	1 86 0 prologue_end
	outct res[r0], 1
	chkct res[r0], 1
	ldc r2, 4
	.loc	1 86 0
.Lxta.endpoint_labels34:
	outt res[r0], r2
	.loc	1 86 0
	outct res[r0], 1
	chkct res[r0], 1
	.loc	1 87 0
	outct res[r0], 1
	.loc	1 88 0
	chkct res[r0], 1
	.loc	1 88 0
.Lxta.endpoint_labels35:
	out res[r0], r1
	.loc	1 88 0
	outct res[r0], 1
	chkct res[r0], 1
	.loc	1 90 0
.Ltmp85:
	chkct res[r0], 1
	outct res[r0], 1
	.loc	1 90 0
.Lxta.endpoint_labels36:
	in r1, res[r0]
.Ltmp86:
	.loc	1 90 0
	chkct res[r0], 1
	outct res[r0], 1
	retsp 0
.Ltmp87:
.Ltmp88:
	.size	frame_buffer_commit, .Ltmp88-frame_buffer_commit
.Lfunc_end9:
.Ltmp89:
	.cfi_endproc
.Leh_func_end9:

	.align	4
	.cc_bottom frame_buffer_commit.function
	.set	frame_buffer_commit.nstackwords,0
	.globl	frame_buffer_commit.nstackwords
	.set	frame_buffer_commit.maxcores,1
	.globl	frame_buffer_commit.maxcores
	.set	frame_buffer_commit.maxtimers,0
	.globl	frame_buffer_commit.maxtimers
	.set	frame_buffer_commit.maxchanends,0
	.globl	frame_buffer_commit.maxchanends
	.cc_top frame_buffer_init.function
	.globl	frame_buffer_init
	.align	4
	.type	frame_buffer_init,@function
frame_buffer_init:
.Ltmp90:
	.cfi_startproc
.Lfunc_begin10:
	.loc	1 93 0
.Lxtalabel12:
	.loc	1 94 0 prologue_end
	outct res[r0], 1
	chkct res[r0], 1
	ldc r2, 5
	.loc	1 94 0
.Lxta.endpoint_labels37:
	outt res[r0], r2
	.loc	1 94 0
	outct res[r0], 1
	chkct res[r0], 1
	.loc	1 95 0
	outct res[r0], 1
	.loc	1 96 0
	chkct res[r0], 1
	.loc	1 96 0
.Lxta.endpoint_labels38:
	out res[r0], r1
	.loc	1 96 0
	outct res[r0], 1
	chkct res[r0], 1
	retsp 0
.Ltmp91:
.Ltmp92:
	.size	frame_buffer_init, .Ltmp92-frame_buffer_init
.Lfunc_end10:
.Ltmp93:
	.cfi_endproc
.Leh_func_end10:

	.align	4
	.cc_bottom frame_buffer_init.function
	.set	frame_buffer_init.nstackwords,0
	.globl	frame_buffer_init.nstackwords
	.set	frame_buffer_init.maxcores,1
	.globl	frame_buffer_init.maxcores
	.set	frame_buffer_init.maxtimers,0
	.globl	frame_buffer_init.maxtimers
	.set	frame_buffer_init.maxchanends,0
	.globl	frame_buffer_init.maxchanends
	.cfi_sections .debug_frame
.Ltext_end:
	.section	.dp.data,"awd",@progbits
.Ldata_end:
	.text
.Lsection_end1:
	.section	.xtaendpointtable,"",@progbits
.Lentries_start0:
	.long	.Lentries_end1-.Lentries_start0
	.long	0
	.ascii	 "J:\\ProjectEstimated2014\\XMOS\\HMI\\REF_8080_RGB\\HMI\\slave\\app_kentec_display_i8080\\.build_Debug"
	.byte	0
.cc_top cc_0,.Lxta.endpoint_labels28
	.ascii	 "J:/ProjectEstimated2014/XMOS/HMI/REF_8080_RGB/HMI/slave/module_display_controller/src/display_controller_client.xc"
	.byte	0
	.long	9
	.long	.Lxta.endpoint_labels28
.cc_bottom cc_0
.cc_top cc_1,.Lxta.endpoint_labels29
	.ascii	 "J:/ProjectEstimated2014/XMOS/HMI/REF_8080_RGB/HMI/slave/module_display_controller/src/display_controller_client.xc"
	.byte	0
	.long	11
	.long	.Lxta.endpoint_labels29
.cc_bottom cc_1
.cc_top cc_2,.Lxta.endpoint_labels30
	.ascii	 "J:/ProjectEstimated2014/XMOS/HMI/REF_8080_RGB/HMI/slave/module_display_controller/src/display_controller_client.xc"
	.byte	0
	.long	12
	.long	.Lxta.endpoint_labels30
.cc_bottom cc_2
.cc_top cc_3,.Lxta.endpoint_labels31
	.ascii	 "J:/ProjectEstimated2014/XMOS/HMI/REF_8080_RGB/HMI/slave/module_display_controller/src/display_controller_client.xc"
	.byte	0
	.long	14
	.long	.Lxta.endpoint_labels31
.cc_bottom cc_3
.cc_top cc_4,.Lxta.endpoint_labels12
	.ascii	 "J:/ProjectEstimated2014/XMOS/HMI/REF_8080_RGB/HMI/slave/module_display_controller/src/display_controller_client.xc"
	.byte	0
	.long	20
	.long	.Lxta.endpoint_labels12
.cc_bottom cc_4
.cc_top cc_5,.Lxta.endpoint_labels8
	.ascii	 "J:/ProjectEstimated2014/XMOS/HMI/REF_8080_RGB/HMI/slave/module_display_controller/src/display_controller_client.xc"
	.byte	0
	.long	20
	.long	.Lxta.endpoint_labels8
.cc_bottom cc_5
.cc_top cc_6,.Lxta.endpoint_labels13
	.ascii	 "J:/ProjectEstimated2014/XMOS/HMI/REF_8080_RGB/HMI/slave/module_display_controller/src/display_controller_client.xc"
	.byte	0
	.long	22
	.long	.Lxta.endpoint_labels13
.cc_bottom cc_6
.cc_top cc_7,.Lxta.endpoint_labels9
	.ascii	 "J:/ProjectEstimated2014/XMOS/HMI/REF_8080_RGB/HMI/slave/module_display_controller/src/display_controller_client.xc"
	.byte	0
	.long	22
	.long	.Lxta.endpoint_labels9
.cc_bottom cc_7
.cc_top cc_8,.Lxta.endpoint_labels10
	.ascii	 "J:/ProjectEstimated2014/XMOS/HMI/REF_8080_RGB/HMI/slave/module_display_controller/src/display_controller_client.xc"
	.byte	0
	.long	23
	.long	.Lxta.endpoint_labels10
.cc_bottom cc_8
.cc_top cc_9,.Lxta.endpoint_labels14
	.ascii	 "J:/ProjectEstimated2014/XMOS/HMI/REF_8080_RGB/HMI/slave/module_display_controller/src/display_controller_client.xc"
	.byte	0
	.long	23
	.long	.Lxta.endpoint_labels14
.cc_bottom cc_9
.cc_top cc_10,.Lxta.endpoint_labels11
	.ascii	 "J:/ProjectEstimated2014/XMOS/HMI/REF_8080_RGB/HMI/slave/module_display_controller/src/display_controller_client.xc"
	.byte	0
	.long	24
	.long	.Lxta.endpoint_labels11
.cc_bottom cc_10
.cc_top cc_11,.Lxta.endpoint_labels15
	.ascii	 "J:/ProjectEstimated2014/XMOS/HMI/REF_8080_RGB/HMI/slave/module_display_controller/src/display_controller_client.xc"
	.byte	0
	.long	24
	.long	.Lxta.endpoint_labels15
.cc_bottom cc_11
.cc_top cc_12,.Lxta.endpoint_labels4
	.ascii	 "J:/ProjectEstimated2014/XMOS/HMI/REF_8080_RGB/HMI/slave/module_display_controller/src/display_controller_client.xc"
	.byte	0
	.long	37
	.long	.Lxta.endpoint_labels4
.cc_bottom cc_12
.cc_top cc_13,.Lxta.endpoint_labels0
	.ascii	 "J:/ProjectEstimated2014/XMOS/HMI/REF_8080_RGB/HMI/slave/module_display_controller/src/display_controller_client.xc"
	.byte	0
	.long	37
	.long	.Lxta.endpoint_labels0
.cc_bottom cc_13
.cc_top cc_14,.Lxta.endpoint_labels5
	.ascii	 "J:/ProjectEstimated2014/XMOS/HMI/REF_8080_RGB/HMI/slave/module_display_controller/src/display_controller_client.xc"
	.byte	0
	.long	39
	.long	.Lxta.endpoint_labels5
.cc_bottom cc_14
.cc_top cc_15,.Lxta.endpoint_labels1
	.ascii	 "J:/ProjectEstimated2014/XMOS/HMI/REF_8080_RGB/HMI/slave/module_display_controller/src/display_controller_client.xc"
	.byte	0
	.long	39
	.long	.Lxta.endpoint_labels1
.cc_bottom cc_15
.cc_top cc_16,.Lxta.endpoint_labels6
	.ascii	 "J:/ProjectEstimated2014/XMOS/HMI/REF_8080_RGB/HMI/slave/module_display_controller/src/display_controller_client.xc"
	.byte	0
	.long	40
	.long	.Lxta.endpoint_labels6
.cc_bottom cc_16
.cc_top cc_17,.Lxta.endpoint_labels2
	.ascii	 "J:/ProjectEstimated2014/XMOS/HMI/REF_8080_RGB/HMI/slave/module_display_controller/src/display_controller_client.xc"
	.byte	0
	.long	40
	.long	.Lxta.endpoint_labels2
.cc_bottom cc_17
.cc_top cc_18,.Lxta.endpoint_labels7
	.ascii	 "J:/ProjectEstimated2014/XMOS/HMI/REF_8080_RGB/HMI/slave/module_display_controller/src/display_controller_client.xc"
	.byte	0
	.long	41
	.long	.Lxta.endpoint_labels7
.cc_bottom cc_18
.cc_top cc_19,.Lxta.endpoint_labels3
	.ascii	 "J:/ProjectEstimated2014/XMOS/HMI/REF_8080_RGB/HMI/slave/module_display_controller/src/display_controller_client.xc"
	.byte	0
	.long	41
	.long	.Lxta.endpoint_labels3
.cc_bottom cc_19
.cc_top cc_20,.Lxta.endpoint_labels22
	.ascii	 "J:/ProjectEstimated2014/XMOS/HMI/REF_8080_RGB/HMI/slave/module_display_controller/src/display_controller_client.xc"
	.byte	0
	.long	57
	.long	.Lxta.endpoint_labels22
.cc_bottom cc_20
.cc_top cc_21,.Lxta.endpoint_labels16
	.ascii	 "J:/ProjectEstimated2014/XMOS/HMI/REF_8080_RGB/HMI/slave/module_display_controller/src/display_controller_client.xc"
	.byte	0
	.long	57
	.long	.Lxta.endpoint_labels16
.cc_bottom cc_21
.cc_top cc_22,.Lxta.endpoint_labels17
	.ascii	 "J:/ProjectEstimated2014/XMOS/HMI/REF_8080_RGB/HMI/slave/module_display_controller/src/display_controller_client.xc"
	.byte	0
	.long	60
	.long	.Lxta.endpoint_labels17
.cc_bottom cc_22
.cc_top cc_23,.Lxta.endpoint_labels23
	.ascii	 "J:/ProjectEstimated2014/XMOS/HMI/REF_8080_RGB/HMI/slave/module_display_controller/src/display_controller_client.xc"
	.byte	0
	.long	60
	.long	.Lxta.endpoint_labels23
.cc_bottom cc_23
.cc_top cc_24,.Lxta.endpoint_labels18
	.ascii	 "J:/ProjectEstimated2014/XMOS/HMI/REF_8080_RGB/HMI/slave/module_display_controller/src/display_controller_client.xc"
	.byte	0
	.long	61
	.long	.Lxta.endpoint_labels18
.cc_bottom cc_24
.cc_top cc_25,.Lxta.endpoint_labels24
	.ascii	 "J:/ProjectEstimated2014/XMOS/HMI/REF_8080_RGB/HMI/slave/module_display_controller/src/display_controller_client.xc"
	.byte	0
	.long	61
	.long	.Lxta.endpoint_labels24
.cc_bottom cc_25
.cc_top cc_26,.Lxta.endpoint_labels19
	.ascii	 "J:/ProjectEstimated2014/XMOS/HMI/REF_8080_RGB/HMI/slave/module_display_controller/src/display_controller_client.xc"
	.byte	0
	.long	62
	.long	.Lxta.endpoint_labels19
.cc_bottom cc_26
.cc_top cc_27,.Lxta.endpoint_labels25
	.ascii	 "J:/ProjectEstimated2014/XMOS/HMI/REF_8080_RGB/HMI/slave/module_display_controller/src/display_controller_client.xc"
	.byte	0
	.long	62
	.long	.Lxta.endpoint_labels25
.cc_bottom cc_27
.cc_top cc_28,.Lxta.endpoint_labels26
	.ascii	 "J:/ProjectEstimated2014/XMOS/HMI/REF_8080_RGB/HMI/slave/module_display_controller/src/display_controller_client.xc"
	.byte	0
	.long	63
	.long	.Lxta.endpoint_labels26
.cc_bottom cc_28
.cc_top cc_29,.Lxta.endpoint_labels20
	.ascii	 "J:/ProjectEstimated2014/XMOS/HMI/REF_8080_RGB/HMI/slave/module_display_controller/src/display_controller_client.xc"
	.byte	0
	.long	63
	.long	.Lxta.endpoint_labels20
.cc_bottom cc_29
.cc_top cc_30,.Lxta.endpoint_labels27
	.ascii	 "J:/ProjectEstimated2014/XMOS/HMI/REF_8080_RGB/HMI/slave/module_display_controller/src/display_controller_client.xc"
	.byte	0
	.long	64
	.long	.Lxta.endpoint_labels27
.cc_bottom cc_30
.cc_top cc_31,.Lxta.endpoint_labels21
	.ascii	 "J:/ProjectEstimated2014/XMOS/HMI/REF_8080_RGB/HMI/slave/module_display_controller/src/display_controller_client.xc"
	.byte	0
	.long	64
	.long	.Lxta.endpoint_labels21
.cc_bottom cc_31
.cc_top cc_32,.Lxta.endpoint_labels33
	.ascii	 "J:/ProjectEstimated2014/XMOS/HMI/REF_8080_RGB/HMI/slave/module_display_controller/src/display_controller_client.xc"
	.byte	0
	.long	78
	.long	.Lxta.endpoint_labels33
.cc_bottom cc_32
.cc_top cc_33,.Lxta.endpoint_labels32
	.ascii	 "J:/ProjectEstimated2014/XMOS/HMI/REF_8080_RGB/HMI/slave/module_display_controller/src/display_controller_client.xc"
	.byte	0
	.long	82
	.long	.Lxta.endpoint_labels32
.cc_bottom cc_33
.cc_top cc_34,.Lxta.endpoint_labels34
	.ascii	 "J:/ProjectEstimated2014/XMOS/HMI/REF_8080_RGB/HMI/slave/module_display_controller/src/display_controller_client.xc"
	.byte	0
	.long	86
	.long	.Lxta.endpoint_labels34
.cc_bottom cc_34
.cc_top cc_35,.Lxta.endpoint_labels35
	.ascii	 "J:/ProjectEstimated2014/XMOS/HMI/REF_8080_RGB/HMI/slave/module_display_controller/src/display_controller_client.xc"
	.byte	0
	.long	88
	.long	.Lxta.endpoint_labels35
.cc_bottom cc_35
.cc_top cc_36,.Lxta.endpoint_labels36
	.ascii	 "J:/ProjectEstimated2014/XMOS/HMI/REF_8080_RGB/HMI/slave/module_display_controller/src/display_controller_client.xc"
	.byte	0
	.long	90
	.long	.Lxta.endpoint_labels36
.cc_bottom cc_36
.cc_top cc_37,.Lxta.endpoint_labels37
	.ascii	 "J:/ProjectEstimated2014/XMOS/HMI/REF_8080_RGB/HMI/slave/module_display_controller/src/display_controller_client.xc"
	.byte	0
	.long	94
	.long	.Lxta.endpoint_labels37
.cc_bottom cc_37
.cc_top cc_38,.Lxta.endpoint_labels38
	.ascii	 "J:/ProjectEstimated2014/XMOS/HMI/REF_8080_RGB/HMI/slave/module_display_controller/src/display_controller_client.xc"
	.byte	0
	.long	96
	.long	.Lxta.endpoint_labels38
.cc_bottom cc_38
.Lentries_end1:
	.section	.xtalabeltable,"",@progbits
.Lentries_start2:
	.long	.Lentries_end3-.Lentries_start2
	.long	0
	.ascii	 "J:\\ProjectEstimated2014\\XMOS\\HMI\\REF_8080_RGB\\HMI\\slave\\app_kentec_display_i8080\\.build_Debug"
	.byte	0
.cc_top cc_39,.Lxtalabel8
	.ascii	 "J:/ProjectEstimated2014/XMOS/HMI/REF_8080_RGB/HMI/slave/module_display_controller/src/display_controller_client.xc"
	.byte	0
	.long	8
	.long	16
	.long	.Lxtalabel8
.cc_bottom cc_39
.cc_top cc_40,.Lxtalabel2
	.ascii	 "J:/ProjectEstimated2014/XMOS/HMI/REF_8080_RGB/HMI/slave/module_display_controller/src/display_controller_client.xc"
	.byte	0
	.long	20
	.long	26
	.long	.Lxtalabel2
.cc_bottom cc_40
.cc_top cc_41,.Lxtalabel3
	.ascii	 "J:/ProjectEstimated2014/XMOS/HMI/REF_8080_RGB/HMI/slave/module_display_controller/src/display_controller_client.xc"
	.byte	0
	.long	20
	.long	26
	.long	.Lxtalabel3
.cc_bottom cc_41
.cc_top cc_42,.Lxtalabel2
	.ascii	 "J:/ProjectEstimated2014/XMOS/HMI/REF_8080_RGB/HMI/slave/module_display_controller/src/display_controller_client.xc"
	.byte	0
	.long	30
	.long	33
	.long	.Lxtalabel2
.cc_bottom cc_42
.cc_top cc_43,.Lxtalabel0
	.ascii	 "J:/ProjectEstimated2014/XMOS/HMI/REF_8080_RGB/HMI/slave/module_display_controller/src/display_controller_client.xc"
	.byte	0
	.long	37
	.long	43
	.long	.Lxtalabel0
.cc_bottom cc_43
.cc_top cc_44,.Lxtalabel1
	.ascii	 "J:/ProjectEstimated2014/XMOS/HMI/REF_8080_RGB/HMI/slave/module_display_controller/src/display_controller_client.xc"
	.byte	0
	.long	37
	.long	43
	.long	.Lxtalabel1
.cc_bottom cc_44
.cc_top cc_45,.Lxtalabel0
	.ascii	 "J:/ProjectEstimated2014/XMOS/HMI/REF_8080_RGB/HMI/slave/module_display_controller/src/display_controller_client.xc"
	.byte	0
	.long	47
	.long	50
	.long	.Lxtalabel0
.cc_bottom cc_45
.cc_top cc_46,.Lxtalabel6
	.ascii	 "J:/ProjectEstimated2014/XMOS/HMI/REF_8080_RGB/HMI/slave/module_display_controller/src/display_controller_client.xc"
	.byte	0
	.long	55
	.long	55
	.long	.Lxtalabel6
.cc_bottom cc_46
.cc_top cc_47,.Lxtalabel6
	.ascii	 "J:/ProjectEstimated2014/XMOS/HMI/REF_8080_RGB/HMI/slave/module_display_controller/src/display_controller_client.xc"
	.byte	0
	.long	56
	.long	56
	.long	.Lxtalabel6
.cc_bottom cc_47
.cc_top cc_48,.Lxtalabel5
	.ascii	 "J:/ProjectEstimated2014/XMOS/HMI/REF_8080_RGB/HMI/slave/module_display_controller/src/display_controller_client.xc"
	.byte	0
	.long	57
	.long	66
	.long	.Lxtalabel5
.cc_bottom cc_48
.cc_top cc_49,.Lxtalabel7
	.ascii	 "J:/ProjectEstimated2014/XMOS/HMI/REF_8080_RGB/HMI/slave/module_display_controller/src/display_controller_client.xc"
	.byte	0
	.long	57
	.long	66
	.long	.Lxtalabel7
.cc_bottom cc_49
.cc_top cc_50,.Lxtalabel4
	.ascii	 "J:/ProjectEstimated2014/XMOS/HMI/REF_8080_RGB/HMI/slave/module_display_controller/src/display_controller_client.xc"
	.byte	0
	.long	71
	.long	75
	.long	.Lxtalabel4
.cc_bottom cc_50
.cc_top cc_51,.Lxtalabel10
	.ascii	 "J:/ProjectEstimated2014/XMOS/HMI/REF_8080_RGB/HMI/slave/module_display_controller/src/display_controller_client.xc"
	.byte	0
	.long	78
	.long	79
	.long	.Lxtalabel10
.cc_bottom cc_51
.cc_top cc_52,.Lxtalabel9
	.ascii	 "J:/ProjectEstimated2014/XMOS/HMI/REF_8080_RGB/HMI/slave/module_display_controller/src/display_controller_client.xc"
	.byte	0
	.long	82
	.long	83
	.long	.Lxtalabel9
.cc_bottom cc_52
.cc_top cc_53,.Lxtalabel11
	.ascii	 "J:/ProjectEstimated2014/XMOS/HMI/REF_8080_RGB/HMI/slave/module_display_controller/src/display_controller_client.xc"
	.byte	0
	.long	86
	.long	91
	.long	.Lxtalabel11
.cc_bottom cc_53
.cc_top cc_54,.Lxtalabel12
	.ascii	 "J:/ProjectEstimated2014/XMOS/HMI/REF_8080_RGB/HMI/slave/module_display_controller/src/display_controller_client.xc"
	.byte	0
	.long	94
	.long	98
	.long	.Lxtalabel12
.cc_bottom cc_54
.Lentries_end3:
