	.file	"J:/ProjectEstimated2014/XMOS/HMI/REF_8080_RGB/HMI/slave/module_lcd/src/lcd.xc"

	.inline_definition delay_seconds
	.inline_definition delay_milliseconds
	.inline_definition delay_microseconds
	.set usage.anon.0,0
	.set usage.anon.1,0
	.set usage.anon.2,0
	.set usage.anon.3,0
	.set usage.anon.4,0
	.set usage.anon.5,0
	.call lcd_server,lcd_fast_write
	.call lcd_server,configure_clock_rate_at_least
	.call usage.anon.2,delay_ticks_longlong
	.call usage.anon.1,delay_ticks_longlong
	.call usage.anon.0,delay_ticks_longlong
	.set usage.anon.0.locnoside, 1
	.set usage.anon.1.locnoside, 1
	.set usage.anon.2.locnoside, 1
	.set usage.anon.0.locnochandec, 1
	.set usage.anon.1.locnochandec, 1
	.set usage.anon.2.locnochandec, 1
	.set usage.anon.3.locnochandec, 1
	.set usage.anon.4.locnochandec, 1
	.set usage.anon.5.locnochandec, 1
	.set lcd_init.locnochandec, 1
	.set lcd_server.locnochandec, 1
	.set usage.anon.0.locnoglobalaccess, 1
	.set usage.anon.1.locnoglobalaccess, 1
	.set usage.anon.2.locnoglobalaccess, 1
	.set usage.anon.3.locnoglobalaccess, 1
	.set usage.anon.4.locnoglobalaccess, 1
	.set usage.anon.5.locnoglobalaccess, 1
	.set lcd_init.locnoglobalaccess, 1
	.set lcd_server.locnoglobalaccess, 1
	.set usage.anon.0.locnointerfaceaccess, 1
	.set usage.anon.1.locnointerfaceaccess, 1
	.set usage.anon.2.locnointerfaceaccess, 1
	.set usage.anon.3.locnointerfaceaccess, 1
	.set usage.anon.4.locnointerfaceaccess, 1
	.set usage.anon.5.locnointerfaceaccess, 1
	.set lcd_init.locnointerfaceaccess, 1
	.set lcd_server.locnointerfaceaccess, 1
	.set usage.anon.0.locnonotificationselect, 1
	.set usage.anon.1.locnonotificationselect, 1
	.set usage.anon.2.locnonotificationselect, 1
	.set usage.anon.3.locnonotificationselect, 1
	.set usage.anon.4.locnonotificationselect, 1
	.set usage.anon.5.locnonotificationselect, 1
	.set lcd_init.locnonotificationselect, 1
	.set lcd_server.locnonotificationselect, 1


	.file	1 "J:/ProjectEstimated2014/XMOS/HMI/REF_8080_RGB/HMI/slave/module_lcd/src/lcd.xc"
	.file	2 "J:\\ProjectEstimated2014\\XMOS\\HMI\\REF_8080_RGB\\HMI\\slave\\app_kentec_display_i8080\\.build_Debug\\timer.h"
	.file	3 "J:\\ProjectEstimated2014\\XMOS\\HMI\\REF_8080_RGB\\HMI\\slave\\app_kentec_display_i8080\\.build_Debug\\lcd.h"
	.text
.Ltext_begin:
	.section	.dp.data,"awd",@progbits
	.text
	.cc_top lcd_server.function
	.globl	lcd_server
	.align	4
	.type	lcd_server,@function
lcd_server:
.Ltmp8:
	.cfi_startproc
.Lfunc_begin0:
	.loc	1 14 0
.Lxtalabel0:
	entsp 9
.Ltmp9:
	.cfi_def_cfa_offset 36
.Ltmp10:
	.cfi_offset 15, 0
	.loc	1 14 0 prologue_end
.Ltmp11:
	stw r4, sp[8]
.Ltmp12:
	.cfi_offset 4, -4
	stw r5, sp[7]
.Ltmp13:
	.cfi_offset 5, -8
	stw r6, sp[6]
.Ltmp14:
	.cfi_offset 6, -12
	stw r7, sp[5]
.Ltmp15:
	.cfi_offset 7, -16
	stw r8, sp[4]
.Ltmp16:
	.cfi_offset 8, -20
	stw r9, sp[3]
.Ltmp17:
	.cfi_offset 9, -24
	stw r10, sp[2]
.Ltmp18:
	.cfi_offset 10, -28
	mov r6, r1
.Ltmp19:
	mov r4, r0
.Ltmp20:
	.loc	1 17 0
	ldw r7, r6[3]
	ldc r1, 25
	mkmsk r2, 1
	.loc	1 17 0
	mov r0, r7
.Lxta.call_labels0:
	bl configure_clock_rate_at_least
	.loc	1 19 0
	ldw r0, r6[0]
	setclk res[r0], r7
	.loc	1 20 0
	setc res[r0], 20495
	.loc	1 22 0
	ldw r2, r6[2]
	setclk res[r2], r7
	.loc	1 23 0
	ldw r1, r6[1]
	stw r1, sp[1]
	setclk res[r1], r7
	.loc	1 25 0
	setc res[r0], 24591
	.loc	1 35 0
	setc res[r7], 15
	.loc	1 37 0
	chkct res[r4], 1
	.loc	1 38 0
.Lxta.endpoint_labels0:
	outct res[r4], 1
	ldc r0, 0
	.loc	1 45 0
.Lxta.endpoint_labels1:
	out res[r1], r0
	.loc	1 45 0
	syncr res[r1]
	getts r0, res[r1]
.Ltmp21:
	ldc r1, 1000
	.loc	1 47 0
	add r0, r0, r1
.Ltmp22:
	ldc r10, 46
	ldc r8, 862
	ldc r5, 480
.Ltmp23:
.LBB0_1:
.Lxtalabel1:
	ldc r1, 19826
	.loc	1 73 0
.Ltmp24:
	add r0, r0, r1
.Ltmp25:
	ldc r7, 0
	mov r6, r2
.Ltmp26:
.LBB0_2:
.Lxtalabel2:
	mov r9, r0
	.loc	1 81 0
.Ltmp27:
	add r1, r9, r10
.Ltmp28:
	.loc	1 83 0
.Lxta.endpoint_labels2:
	in r0, res[r4]
.Ltmp29:
	.loc	1 84 0
	chkct res[r4], 1
	.loc	1 87 0
	mov r2, r6
	ldw r3, sp[1]
.Lxta.call_labels1:
	bl lcd_fast_write
.Ltmp30:
	.loc	1 105 0
	add r0, r9, r8
.Ltmp31:
	.loc	1 76 0
	add r7, r7, 1
	eq r1, r7, r5
	.loc	1 104 0
.Lxta.endpoint_labels3:
	outct res[r4], 1
.xtaloop 480
	# LOOPMARKER 1
.Lxta.loop_labels0:
	# LOOPMARKER 0
	.loc	1 76 0
	bf r1, .LBB0_2
.Ltmp32:
	ldc r0, 6896
	.loc	1 112 0
.Ltmp33:
	add r0, r9, r0
	mov r2, r6
	ldw r1, sp[1]
	bu .LBB0_1
.Ltmp34:
.Ltmp35:
	.size	lcd_server, .Ltmp35-lcd_server
.Lfunc_end0:
.Ltmp36:
	.cfi_endproc
.Leh_func_end0:

	.align	4
	.cc_bottom lcd_server.function
	.set	lcd_server.nstackwords,((configure_clock_rate_at_least.nstackwords $M lcd_fast_write.nstackwords) + 9)
	.globl	lcd_server.nstackwords
	.set	lcd_server.maxcores,configure_clock_rate_at_least.maxcores $M lcd_fast_write.maxcores $M 1
	.globl	lcd_server.maxcores
	.set	lcd_server.maxtimers,configure_clock_rate_at_least.maxtimers $M lcd_fast_write.maxtimers $M 0
	.globl	lcd_server.maxtimers
	.set	lcd_server.maxchanends,configure_clock_rate_at_least.maxchanends $M lcd_fast_write.maxchanends $M 0
	.globl	lcd_server.maxchanends
	.cc_top lcd_init.function
	.globl	lcd_init
	.align	4
	.type	lcd_init,@function
lcd_init:
.Ltmp37:
	.cfi_startproc
.Lfunc_begin1:
	.loc	1 9 0
.Lxtalabel3:
	.loc	1 10 0 prologue_end
.Lxta.endpoint_labels4:
	outct res[r0], 1
	retsp 0
.Ltmp38:
.Ltmp39:
	.size	lcd_init, .Ltmp39-lcd_init
.Lfunc_end1:
.Ltmp40:
	.cfi_endproc
.Leh_func_end1:

	.align	4
	.cc_bottom lcd_init.function
	.set	lcd_init.nstackwords,0
	.globl	lcd_init.nstackwords
	.set	lcd_init.maxcores,1
	.globl	lcd_init.maxcores
	.set	lcd_init.maxtimers,0
	.globl	lcd_init.maxtimers
	.set	lcd_init.maxchanends,0
	.globl	lcd_init.maxchanends
	.cfi_sections .debug_frame
.Ltext_end:
	.section	.dp.data,"awd",@progbits
.Ldata_end:
	.text
.Lsection_end1:
	.section	.xtacalltable,"",@progbits
.Lentries_start0:
	.long	.Lentries_end1-.Lentries_start0
	.long	0
	.ascii	 "J:\\ProjectEstimated2014\\XMOS\\HMI\\REF_8080_RGB\\HMI\\slave\\app_kentec_display_i8080\\.build_Debug"
	.byte	0
.cc_top cc_0,.Lxta.call_labels0
	.ascii	 "J:/ProjectEstimated2014/XMOS/HMI/REF_8080_RGB/HMI/slave/module_lcd/src/lcd.xc"
	.byte	0
	.long	17
	.long	.Lxta.call_labels0
.cc_bottom cc_0
.cc_top cc_1,.Lxta.call_labels1
	.ascii	 "J:/ProjectEstimated2014/XMOS/HMI/REF_8080_RGB/HMI/slave/module_lcd/src/lcd.xc"
	.byte	0
	.long	87
	.long	.Lxta.call_labels1
.cc_bottom cc_1
.Lentries_end1:
	.section	.xtaendpointtable,"",@progbits
.Lentries_start2:
	.long	.Lentries_end3-.Lentries_start2
	.long	0
	.ascii	 "J:\\ProjectEstimated2014\\XMOS\\HMI\\REF_8080_RGB\\HMI\\slave\\app_kentec_display_i8080\\.build_Debug"
	.byte	0
.cc_top cc_2,.Lxta.endpoint_labels4
	.ascii	 "J:/ProjectEstimated2014/XMOS/HMI/REF_8080_RGB/HMI/slave/module_lcd/src/lcd.xc"
	.byte	0
	.long	10
	.long	.Lxta.endpoint_labels4
.cc_bottom cc_2
.cc_top cc_3,.Lxta.endpoint_labels0
	.ascii	 "J:/ProjectEstimated2014/XMOS/HMI/REF_8080_RGB/HMI/slave/module_lcd/src/lcd.xc"
	.byte	0
	.long	38
	.long	.Lxta.endpoint_labels0
.cc_bottom cc_3
.cc_top cc_4,.Lxta.endpoint_labels1
	.ascii	 "J:/ProjectEstimated2014/XMOS/HMI/REF_8080_RGB/HMI/slave/module_lcd/src/lcd.xc"
	.byte	0
	.long	45
	.long	.Lxta.endpoint_labels1
.cc_bottom cc_4
.cc_top cc_5,.Lxta.endpoint_labels2
	.ascii	 "J:/ProjectEstimated2014/XMOS/HMI/REF_8080_RGB/HMI/slave/module_lcd/src/lcd.xc"
	.byte	0
	.long	83
	.long	.Lxta.endpoint_labels2
.cc_bottom cc_5
.cc_top cc_6,.Lxta.endpoint_labels3
	.ascii	 "J:/ProjectEstimated2014/XMOS/HMI/REF_8080_RGB/HMI/slave/module_lcd/src/lcd.xc"
	.byte	0
	.long	104
	.long	.Lxta.endpoint_labels3
.cc_bottom cc_6
.Lentries_end3:
	.section	.xtalabeltable,"",@progbits
.Lentries_start4:
	.long	.Lentries_end5-.Lentries_start4
	.long	0
	.ascii	 "J:\\ProjectEstimated2014\\XMOS\\HMI\\REF_8080_RGB\\HMI\\slave\\app_kentec_display_i8080\\.build_Debug"
	.byte	0
.cc_top cc_7,.Lxtalabel3
	.ascii	 "J:/ProjectEstimated2014/XMOS/HMI/REF_8080_RGB/HMI/slave/module_lcd/src/lcd.xc"
	.byte	0
	.long	10
	.long	11
	.long	.Lxtalabel3
.cc_bottom cc_7
.cc_top cc_8,.Lxtalabel0
	.ascii	 "J:/ProjectEstimated2014/XMOS/HMI/REF_8080_RGB/HMI/slave/module_lcd/src/lcd.xc"
	.byte	0
	.long	15
	.long	26
	.long	.Lxtalabel0
.cc_bottom cc_8
.cc_top cc_9,.Lxtalabel0
	.ascii	 "J:/ProjectEstimated2014/XMOS/HMI/REF_8080_RGB/HMI/slave/module_lcd/src/lcd.xc"
	.byte	0
	.long	35
	.long	39
	.long	.Lxtalabel0
.cc_bottom cc_9
.cc_top cc_10,.Lxtalabel0
	.ascii	 "J:/ProjectEstimated2014/XMOS/HMI/REF_8080_RGB/HMI/slave/module_lcd/src/lcd.xc"
	.byte	0
	.long	45
	.long	49
	.long	.Lxtalabel0
.cc_bottom cc_10
.cc_top cc_11,.Lxtalabel1
	.ascii	 "J:/ProjectEstimated2014/XMOS/HMI/REF_8080_RGB/HMI/slave/module_lcd/src/lcd.xc"
	.byte	0
	.long	50
	.long	52
	.long	.Lxtalabel1
.cc_bottom cc_11
.cc_top cc_12,.Lxtalabel1
	.ascii	 "J:/ProjectEstimated2014/XMOS/HMI/REF_8080_RGB/HMI/slave/module_lcd/src/lcd.xc"
	.byte	0
	.long	56
	.long	56
	.long	.Lxtalabel1
.cc_bottom cc_12
.cc_top cc_13,.Lxtalabel1
	.ascii	 "J:/ProjectEstimated2014/XMOS/HMI/REF_8080_RGB/HMI/slave/module_lcd/src/lcd.xc"
	.byte	0
	.long	63
	.long	63
	.long	.Lxtalabel1
.cc_bottom cc_13
.cc_top cc_14,.Lxtalabel1
	.ascii	 "J:/ProjectEstimated2014/XMOS/HMI/REF_8080_RGB/HMI/slave/module_lcd/src/lcd.xc"
	.byte	0
	.long	73
	.long	76
	.long	.Lxtalabel1
.cc_bottom cc_14
.cc_top cc_15,.Lxtalabel2
	.ascii	 "J:/ProjectEstimated2014/XMOS/HMI/REF_8080_RGB/HMI/slave/module_lcd/src/lcd.xc"
	.byte	0
	.long	77
	.long	78
	.long	.Lxtalabel2
.cc_bottom cc_15
.cc_top cc_16,.Lxtalabel2
	.ascii	 "J:/ProjectEstimated2014/XMOS/HMI/REF_8080_RGB/HMI/slave/module_lcd/src/lcd.xc"
	.byte	0
	.long	81
	.long	89
	.long	.Lxtalabel2
.cc_bottom cc_16
.cc_top cc_17,.Lxtalabel2
	.ascii	 "J:/ProjectEstimated2014/XMOS/HMI/REF_8080_RGB/HMI/slave/module_lcd/src/lcd.xc"
	.byte	0
	.long	104
	.long	106
	.long	.Lxtalabel2
.cc_bottom cc_17
.cc_top cc_18,.Lxtalabel2
	.ascii	 "J:/ProjectEstimated2014/XMOS/HMI/REF_8080_RGB/HMI/slave/module_lcd/src/lcd.xc"
	.byte	0
	.long	107
	.long	108
	.long	.Lxtalabel2
.cc_bottom cc_18
.Lentries_end5:
	.section	.xtalooplabeltable,"",@progbits
.Lentries_start6:
	.long	.Lentries_end7-.Lentries_start6
	.long	0
	.ascii	 "J:\\ProjectEstimated2014\\XMOS\\HMI\\REF_8080_RGB\\HMI\\slave\\app_kentec_display_i8080\\.build_Debug"
	.byte	0
.cc_top cc_19,.Lxta.loop_labels0
	.ascii	 "J:/ProjectEstimated2014/XMOS/HMI/REF_8080_RGB/HMI/slave/module_lcd/src/lcd.xc"
	.byte	0
	.long	77
	.long	78
	.long	.Lxta.loop_labels0
.cc_bottom cc_19
.cc_top cc_20,.Lxta.loop_labels0
	.ascii	 "J:/ProjectEstimated2014/XMOS/HMI/REF_8080_RGB/HMI/slave/module_lcd/src/lcd.xc"
	.byte	0
	.long	81
	.long	89
	.long	.Lxta.loop_labels0
.cc_bottom cc_20
.cc_top cc_21,.Lxta.loop_labels0
	.ascii	 "J:/ProjectEstimated2014/XMOS/HMI/REF_8080_RGB/HMI/slave/module_lcd/src/lcd.xc"
	.byte	0
	.long	104
	.long	106
	.long	.Lxta.loop_labels0
.cc_bottom cc_21
.Lentries_end7:
